target datalayout = "e-m:e-p270:32:32-p271:32:32-p272:64:64-i64:64-i128:128-f80:128-n8:16:32:64-S128"
target triple = "x86_64-pc-linux-gnu"

%struct._zend_ssa_range = type { i64, i64, i8, i8 }

; Function Attrs: nounwind uwtable
define hidden i64 @maxAND(i64 noundef %0, i64 noundef %1, i64 noundef %2, i64 noundef %3) #0 {
  %5 = alloca i64, align 8
  %6 = alloca i64, align 8
  %7 = alloca i64, align 8
  %8 = alloca i64, align 8
  %9 = alloca i64, align 8
  %10 = alloca i64, align 8
  store i64 %0, ptr %5, align 8
  store i64 %1, ptr %6, align 8
  store i64 %2, ptr %7, align 8
  store i64 %3, ptr %8, align 8
  store i64 -9223372036854775808, ptr %9, align 8
  br label %11

11:                                               ; preds = %59, %4
  %12 = load i64, ptr %9, align 8
  %13 = icmp ne i64 %12, 0
  br i1 %13, label %14, label %62

14:                                               ; preds = %11
  %15 = load i64, ptr %6, align 8
  %16 = load i64, ptr %8, align 8
  %17 = xor i64 %16, -1
  %18 = and i64 %15, %17
  %19 = load i64, ptr %9, align 8
  %20 = and i64 %18, %19
  %21 = icmp ne i64 %20, 0
  br i1 %21, label %22, label %36

22:                                               ; preds = %14
  %23 = load i64, ptr %6, align 8
  %24 = load i64, ptr %9, align 8
  %25 = xor i64 %24, -1
  %26 = or i64 %23, %25
  %27 = load i64, ptr %9, align 8
  %28 = sub i64 %27, 1
  %29 = or i64 %26, %28
  store i64 %29, ptr %10, align 8
  %30 = load i64, ptr %10, align 8
  %31 = load i64, ptr %5, align 8
  %32 = icmp uge i64 %30, %31
  br i1 %32, label %33, label %35

33:                                               ; preds = %22
  %34 = load i64, ptr %10, align 8
  store i64 %34, ptr %6, align 8
  br label %62

35:                                               ; preds = %22
  br label %59

36:                                               ; preds = %14
  %37 = load i64, ptr %6, align 8
  %38 = xor i64 %37, -1
  %39 = load i64, ptr %8, align 8
  %40 = and i64 %38, %39
  %41 = load i64, ptr %9, align 8
  %42 = and i64 %40, %41
  %43 = icmp ne i64 %42, 0
  br i1 %43, label %44, label %58

44:                                               ; preds = %36
  %45 = load i64, ptr %8, align 8
  %46 = load i64, ptr %9, align 8
  %47 = xor i64 %46, -1
  %48 = or i64 %45, %47
  %49 = load i64, ptr %9, align 8
  %50 = sub i64 %49, 1
  %51 = or i64 %48, %50
  store i64 %51, ptr %10, align 8
  %52 = load i64, ptr %10, align 8
  %53 = load i64, ptr %7, align 8
  %54 = icmp uge i64 %52, %53
  br i1 %54, label %55, label %57

55:                                               ; preds = %44
  %56 = load i64, ptr %10, align 8
  store i64 %56, ptr %8, align 8
  br label %62

57:                                               ; preds = %44
  br label %58

58:                                               ; preds = %57, %36
  br label %59

59:                                               ; preds = %58, %35
  %60 = load i64, ptr %9, align 8
  %61 = lshr i64 %60, 1
  store i64 %61, ptr %9, align 8
  br label %11

62:                                               ; preds = %55, %33, %11
  %63 = load i64, ptr %6, align 8
  %64 = load i64, ptr %8, align 8
  %65 = and i64 %63, %64
  ret i64 %65
}

; Function Attrs: nounwind uwtable
define hidden i64 @minAND(i64 noundef %0, i64 noundef %1, i64 noundef %2, i64 noundef %3) #0 {
  %5 = alloca i64, align 8
  %6 = alloca i64, align 8
  %7 = alloca i64, align 8
  %8 = alloca i64, align 8
  %9 = alloca i64, align 8
  %10 = alloca i64, align 8
  store i64 %0, ptr %5, align 8
  store i64 %1, ptr %6, align 8
  store i64 %2, ptr %7, align 8
  store i64 %3, ptr %8, align 8
  store i64 -9223372036854775808, ptr %9, align 8
  br label %11

11:                                               ; preds = %48, %4
  %12 = load i64, ptr %9, align 8
  %13 = icmp ne i64 %12, 0
  br i1 %13, label %14, label %51

14:                                               ; preds = %11
  %15 = load i64, ptr %5, align 8
  %16 = xor i64 %15, -1
  %17 = load i64, ptr %7, align 8
  %18 = xor i64 %17, -1
  %19 = and i64 %16, %18
  %20 = load i64, ptr %9, align 8
  %21 = and i64 %19, %20
  %22 = icmp ne i64 %21, 0
  br i1 %22, label %23, label %48

23:                                               ; preds = %14
  %24 = load i64, ptr %5, align 8
  %25 = load i64, ptr %9, align 8
  %26 = or i64 %24, %25
  %27 = load i64, ptr %9, align 8
  %28 = sub i64 0, %27
  %29 = and i64 %26, %28
  store i64 %29, ptr %10, align 8
  %30 = load i64, ptr %10, align 8
  %31 = load i64, ptr %6, align 8
  %32 = icmp ule i64 %30, %31
  br i1 %32, label %33, label %35

33:                                               ; preds = %23
  %34 = load i64, ptr %10, align 8
  store i64 %34, ptr %5, align 8
  br label %51

35:                                               ; preds = %23
  %36 = load i64, ptr %7, align 8
  %37 = load i64, ptr %9, align 8
  %38 = or i64 %36, %37
  %39 = load i64, ptr %9, align 8
  %40 = sub i64 0, %39
  %41 = and i64 %38, %40
  store i64 %41, ptr %10, align 8
  %42 = load i64, ptr %10, align 8
  %43 = load i64, ptr %8, align 8
  %44 = icmp ule i64 %42, %43
  br i1 %44, label %45, label %47

45:                                               ; preds = %35
  %46 = load i64, ptr %10, align 8
  store i64 %46, ptr %7, align 8
  br label %51

47:                                               ; preds = %35
  br label %48

48:                                               ; preds = %47, %14
  %49 = load i64, ptr %9, align 8
  %50 = lshr i64 %49, 1
  store i64 %50, ptr %9, align 8
  br label %11

51:                                               ; preds = %45, %33, %11
  %52 = load i64, ptr %5, align 8
  %53 = load i64, ptr %7, align 8
  %54 = and i64 %52, %53
  ret i64 %54
}

; Function Attrs: nounwind uwtable
define internal void @zend_ssa_range_and(i64 noundef %0, i64 noundef %1, i64 noundef %2, i64 noundef %3, ptr noundef %4) #0 {
  %6 = alloca i64, align 8
  %7 = alloca i64, align 8
  %8 = alloca i64, align 8
  %9 = alloca i64, align 8
  %10 = alloca ptr, align 8
  %11 = alloca i32, align 4
  store i64 %0, ptr %6, align 8
  store i64 %1, ptr %7, align 8
  store i64 %2, ptr %8, align 8
  store i64 %3, ptr %9, align 8
  store ptr %4, ptr %10, align 8
  %12 = load i64, ptr %6, align 8
  %13 = icmp slt i64 %12, 0
  %14 = select i1 %13, i32 8, i32 0
  %15 = load i64, ptr %7, align 8
  %16 = icmp slt i64 %15, 0
  %17 = select i1 %16, i32 4, i32 0
  %18 = or i32 %14, %17
  %19 = load i64, ptr %8, align 8
  %20 = icmp slt i64 %19, 0
  %21 = select i1 %20, i32 2, i32 0
  %22 = or i32 %18, %21
  %23 = load i64, ptr %9, align 8
  %24 = icmp slt i64 %23, 0
  %25 = select i1 %24, i32 1, i32 0
  %26 = or i32 %22, %25
  store i32 %26, ptr %11, align 4
  %27 = load i32, ptr %11, align 4
  switch i32 %27, label %98 [
    i32 0, label %28
    i32 3, label %28
    i32 12, label %28
    i32 15, label %28
    i32 2, label %43
    i32 8, label %49
    i32 10, label %55
    i32 11, label %72
    i32 14, label %85
  ]

28:                                               ; preds = %5, %5, %5, %5
  %29 = load i64, ptr %6, align 8
  %30 = load i64, ptr %7, align 8
  %31 = load i64, ptr %8, align 8
  %32 = load i64, ptr %9, align 8
  %33 = call i64 @minAND(i64 noundef %29, i64 noundef %30, i64 noundef %31, i64 noundef %32)
  %34 = load ptr, ptr %10, align 8
  %35 = getelementptr inbounds %struct._zend_ssa_range, ptr %34, i32 0, i32 0
  store i64 %33, ptr %35, align 8
  %36 = load i64, ptr %6, align 8
  %37 = load i64, ptr %7, align 8
  %38 = load i64, ptr %8, align 8
  %39 = load i64, ptr %9, align 8
  %40 = call i64 @maxAND(i64 noundef %36, i64 noundef %37, i64 noundef %38, i64 noundef %39)
  %41 = load ptr, ptr %10, align 8
  %42 = getelementptr inbounds %struct._zend_ssa_range, ptr %41, i32 0, i32 1
  store i64 %40, ptr %42, align 8
  br label %98

43:                                               ; preds = %5
  %44 = load ptr, ptr %10, align 8
  %45 = getelementptr inbounds %struct._zend_ssa_range, ptr %44, i32 0, i32 0
  store i64 0, ptr %45, align 8
  %46 = load i64, ptr %7, align 8
  %47 = load ptr, ptr %10, align 8
  %48 = getelementptr inbounds %struct._zend_ssa_range, ptr %47, i32 0, i32 1
  store i64 %46, ptr %48, align 8
  br label %98

49:                                               ; preds = %5
  %50 = load ptr, ptr %10, align 8
  %51 = getelementptr inbounds %struct._zend_ssa_range, ptr %50, i32 0, i32 0
  store i64 0, ptr %51, align 8
  %52 = load i64, ptr %9, align 8
  %53 = load ptr, ptr %10, align 8
  %54 = getelementptr inbounds %struct._zend_ssa_range, ptr %53, i32 0, i32 1
  store i64 %52, ptr %54, align 8
  br label %98

55:                                               ; preds = %5
  %56 = load i64, ptr %6, align 8
  %57 = load i64, ptr %8, align 8
  %58 = call i64 @minAND(i64 noundef %56, i64 noundef -1, i64 noundef %57, i64 noundef -1)
  %59 = load ptr, ptr %10, align 8
  %60 = getelementptr inbounds %struct._zend_ssa_range, ptr %59, i32 0, i32 0
  store i64 %58, ptr %60, align 8
  %61 = load i64, ptr %7, align 8
  %62 = load i64, ptr %9, align 8
  %63 = icmp sgt i64 %61, %62
  br i1 %63, label %64, label %66

64:                                               ; preds = %55
  %65 = load i64, ptr %7, align 8
  br label %68

66:                                               ; preds = %55
  %67 = load i64, ptr %9, align 8
  br label %68

68:                                               ; preds = %66, %64
  %69 = phi i64 [ %65, %64 ], [ %67, %66 ]
  %70 = load ptr, ptr %10, align 8
  %71 = getelementptr inbounds %struct._zend_ssa_range, ptr %70, i32 0, i32 1
  store i64 %69, ptr %71, align 8
  br label %98

72:                                               ; preds = %5
  %73 = load i64, ptr %6, align 8
  %74 = load i64, ptr %8, align 8
  %75 = load i64, ptr %9, align 8
  %76 = call i64 @minAND(i64 noundef %73, i64 noundef -1, i64 noundef %74, i64 noundef %75)
  %77 = load ptr, ptr %10, align 8
  %78 = getelementptr inbounds %struct._zend_ssa_range, ptr %77, i32 0, i32 0
  store i64 %76, ptr %78, align 8
  %79 = load i64, ptr %7, align 8
  %80 = load i64, ptr %8, align 8
  %81 = load i64, ptr %9, align 8
  %82 = call i64 @maxAND(i64 noundef 0, i64 noundef %79, i64 noundef %80, i64 noundef %81)
  %83 = load ptr, ptr %10, align 8
  %84 = getelementptr inbounds %struct._zend_ssa_range, ptr %83, i32 0, i32 1
  store i64 %82, ptr %84, align 8
  br label %98

85:                                               ; preds = %5
  %86 = load i64, ptr %6, align 8
  %87 = load i64, ptr %7, align 8
  %88 = load i64, ptr %8, align 8
  %89 = call i64 @minAND(i64 noundef %86, i64 noundef %87, i64 noundef %88, i64 noundef -1)
  %90 = load ptr, ptr %10, align 8
  %91 = getelementptr inbounds %struct._zend_ssa_range, ptr %90, i32 0, i32 0
  store i64 %89, ptr %91, align 8
  %92 = load i64, ptr %6, align 8
  %93 = load i64, ptr %7, align 8
  %94 = load i64, ptr %9, align 8
  %95 = call i64 @maxAND(i64 noundef %92, i64 noundef %93, i64 noundef 0, i64 noundef %94)
  %96 = load ptr, ptr %10, align 8
  %97 = getelementptr inbounds %struct._zend_ssa_range, ptr %96, i32 0, i32 1
  store i64 %95, ptr %97, align 8
  br label %98

98:                                               ; preds = %85, %72, %68, %49, %43, %28, %5
  ret void
}