; Function Attrs: nofree norecurse nosync nounwind memory(argmem: write) uwtable
define internal fastcc void @zend_ssa_range_and(i64 noundef %0, i64 noundef %1, i64 noundef %2, i64 noundef %3, ptr nocapture noundef writeonly %4) unnamed_addr #12 {
  %6 = lshr i64 %0, 60
  %7 = trunc i64 %6 to i32
  %8 = and i32 %7, 8
  %9 = lshr i64 %1, 61
  %10 = trunc i64 %9 to i32
  %11 = and i32 %10, 4
  %12 = or disjoint i32 %11, %8
  %13 = lshr i64 %2, 62
  %14 = trunc i64 %13 to i32
  %15 = and i32 %14, 2
  %16 = or disjoint i32 %12, %15
  %.lobit = lshr i64 %3, 63
  %17 = trunc i64 %.lobit to i32
  %18 = or disjoint i32 %16, %17
  switch i32 %18, label %136 [
    i32 0, label %19
    i32 3, label %19
    i32 12, label %19
    i32 15, label %19
    i32 2, label %54
    i32 8, label %55
    i32 10, label %56
    i32 11, label %68
    i32 14, label %100
  ]

19:                                               ; preds = %5, %5, %5, %5
  %.demorgan.i = or i64 %2, %0
  %20 = xor i64 %.demorgan.i, -1
  br label %21

21:                                               ; preds = %30, %19
  %.026.i = phi i64 [ -9223372036854775808, %19 ], [ %31, %30 ]
  %22 = and i64 %.026.i, %20
  %.not23.i = icmp eq i64 %22, 0
  br i1 %.not23.i, label %30, label %23

23:                                               ; preds = %21
  %24 = or i64 %.026.i, %0
  %25 = sub i64 0, %.026.i
  %26 = and i64 %24, %25
  %.not24.i = icmp ugt i64 %26, %1
  br i1 %.not24.i, label %27, label %minAND.exit

27:                                               ; preds = %23
  %28 = or i64 %.026.i, %2
  %29 = and i64 %28, %25
  %.not25.i = icmp ugt i64 %29, %3
  br i1 %.not25.i, label %30, label %minAND.exit

30:                                               ; preds = %27, %21
  %31 = lshr i64 %.026.i, 1
  %.not.i = icmp ult i64 %.026.i, 2
  br i1 %.not.i, label %minAND.exit, label %21

minAND.exit:                                      ; preds = %23, %27, %30
  %.020.i = phi i64 [ %2, %30 ], [ %2, %23 ], [ %29, %27 ]
  %.019.i = phi i64 [ %0, %30 ], [ %26, %23 ], [ %0, %27 ]
  %32 = and i64 %.019.i, %.020.i
  store i64 %32, ptr %4, align 8
  %33 = xor i64 %3, -1
  %34 = and i64 %33, %1
  %35 = xor i64 %1, -1
  %36 = and i64 %35, %3
  br label %37

37:                                               ; preds = %51, %minAND.exit
  %.030.i = phi i64 [ -9223372036854775808, %minAND.exit ], [ %52, %51 ]
  %38 = and i64 %34, %.030.i
  %.not26.i = icmp eq i64 %38, 0
  br i1 %.not26.i, label %44, label %39

39:                                               ; preds = %37
  %40 = xor i64 %.030.i, -1
  %41 = add i64 %.030.i, -1
  %42 = or i64 %41, %40
  %43 = or i64 %42, %1
  %.not29.i = icmp ult i64 %43, %0
  br i1 %.not29.i, label %51, label %maxAND.exit

44:                                               ; preds = %37
  %45 = and i64 %36, %.030.i
  %.not27.i = icmp eq i64 %45, 0
  br i1 %.not27.i, label %51, label %46

46:                                               ; preds = %44
  %47 = xor i64 %.030.i, -1
  %48 = add i64 %.030.i, -1
  %49 = or i64 %48, %47
  %50 = or i64 %49, %3
  %.not28.i = icmp ult i64 %50, %2
  br i1 %.not28.i, label %51, label %maxAND.exit

51:                                               ; preds = %46, %44, %39
  %52 = lshr i64 %.030.i, 1
  %.not.i44 = icmp ult i64 %.030.i, 2
  br i1 %.not.i44, label %maxAND.exit, label %37

maxAND.exit:                                      ; preds = %39, %46, %51
  %.023.i = phi i64 [ %1, %51 ], [ %43, %39 ], [ %1, %46 ]
  %.022.i = phi i64 [ %3, %51 ], [ %3, %39 ], [ %50, %46 ]
  %53 = and i64 %.022.i, %.023.i
  br label %.sink.split

54:                                               ; preds = %5
  store i64 0, ptr %4, align 8
  br label %.sink.split

55:                                               ; preds = %5
  store i64 0, ptr %4, align 8
  br label %.sink.split

56:                                               ; preds = %5
  %.demorgan.i45 = or i64 %2, %0
  %57 = xor i64 %.demorgan.i45, -1
  br label %58

58:                                               ; preds = %64, %56
  %.026.i46 = phi i64 [ -9223372036854775808, %56 ], [ %65, %64 ]
  %59 = and i64 %.026.i46, %57
  %.not23.i47 = icmp eq i64 %59, 0
  br i1 %.not23.i47, label %64, label %60

60:                                               ; preds = %58
  %61 = or i64 %.026.i46, %0
  %62 = sub i64 0, %.026.i46
  %63 = and i64 %61, %62
  br label %minAND.exit51

64:                                               ; preds = %58
  %65 = lshr i64 %.026.i46, 1
  %.not.i50 = icmp ult i64 %.026.i46, 2
  br i1 %.not.i50, label %minAND.exit51, label %58

minAND.exit51:                                    ; preds = %64, %60
  %.019.i49 = phi i64 [ %63, %60 ], [ %0, %64 ]
  %66 = and i64 %.019.i49, %2
  store i64 %66, ptr %4, align 8
  %67 = tail call i64 @llvm.smax.i64(i64 %1, i64 %3)
  br label %.sink.split

68:                                               ; preds = %5
  %.demorgan.i52 = or i64 %2, %0
  %69 = xor i64 %.demorgan.i52, -1
  br label %70

70:                                               ; preds = %76, %68
  %.026.i53 = phi i64 [ -9223372036854775808, %68 ], [ %77, %76 ]
  %71 = and i64 %.026.i53, %69
  %.not23.i54 = icmp eq i64 %71, 0
  br i1 %.not23.i54, label %76, label %72

72:                                               ; preds = %70
  %73 = or i64 %.026.i53, %0
  %74 = sub i64 0, %.026.i53
  %75 = and i64 %73, %74
  br label %minAND.exit58

76:                                               ; preds = %70
  %77 = lshr i64 %.026.i53, 1
  %.not.i57 = icmp ult i64 %.026.i53, 2
  br i1 %.not.i57, label %minAND.exit58, label %70

minAND.exit58:                                    ; preds = %76, %72
  %.019.i56 = phi i64 [ %75, %72 ], [ %0, %76 ]
  %78 = and i64 %.019.i56, %2
  store i64 %78, ptr %4, align 8
  %79 = xor i64 %3, -1
  %80 = and i64 %79, %1
  %81 = xor i64 %1, -1
  %82 = and i64 %81, %3
  br label %83

83:                                               ; preds = %97, %minAND.exit58
  %.030.i59 = phi i64 [ -9223372036854775808, %minAND.exit58 ], [ %98, %97 ]
  %84 = and i64 %80, %.030.i59
  %.not26.i60 = icmp eq i64 %84, 0
  br i1 %.not26.i60, label %90, label %85

85:                                               ; preds = %83
  %86 = xor i64 %.030.i59, -1
  %87 = add i64 %.030.i59, -1
  %88 = or i64 %87, %86
  %89 = or i64 %88, %1
  br label %maxAND.exit66

90:                                               ; preds = %83
  %91 = and i64 %82, %.030.i59
  %.not27.i63 = icmp eq i64 %91, 0
  br i1 %.not27.i63, label %97, label %92

92:                                               ; preds = %90
  %93 = xor i64 %.030.i59, -1
  %94 = add i64 %.030.i59, -1
  %95 = or i64 %94, %93
  %96 = or i64 %95, %3
  %.not28.i64 = icmp ult i64 %96, %2
  br i1 %.not28.i64, label %97, label %maxAND.exit66

97:                                               ; preds = %92, %90
  %98 = lshr i64 %.030.i59, 1
  %.not.i65 = icmp ult i64 %.030.i59, 2
  br i1 %.not.i65, label %maxAND.exit66, label %83

maxAND.exit66:                                    ; preds = %92, %97, %85
  %.023.i61 = phi i64 [ %89, %85 ], [ %1, %97 ], [ %1, %92 ]
  %.022.i62 = phi i64 [ %3, %85 ], [ %96, %92 ], [ %3, %97 ]
  %99 = and i64 %.022.i62, %.023.i61
  br label %.sink.split

100:                                              ; preds = %5
  %.demorgan.i67 = or i64 %2, %0
  %101 = xor i64 %.demorgan.i67, -1
  br label %102

102:                                              ; preds = %111, %100
  %.026.i68 = phi i64 [ -9223372036854775808, %100 ], [ %112, %111 ]
  %103 = and i64 %.026.i68, %101
  %.not23.i69 = icmp eq i64 %103, 0
  br i1 %.not23.i69, label %111, label %104

104:                                              ; preds = %102
  %105 = or i64 %.026.i68, %0
  %106 = sub i64 0, %.026.i68
  %107 = and i64 %105, %106
  %.not24.i70 = icmp ugt i64 %107, %1
  br i1 %.not24.i70, label %108, label %minAND.exit74

108:                                              ; preds = %104
  %109 = or i64 %.026.i68, %2
  %110 = and i64 %109, %106
  br label %minAND.exit74

111:                                              ; preds = %102
  %112 = lshr i64 %.026.i68, 1
  %.not.i73 = icmp ult i64 %.026.i68, 2
  br i1 %.not.i73, label %minAND.exit74, label %102

minAND.exit74:                                    ; preds = %111, %104, %108
  %.020.i71 = phi i64 [ %2, %104 ], [ %110, %108 ], [ %2, %111 ]
  %.019.i72 = phi i64 [ %107, %104 ], [ %0, %108 ], [ %0, %111 ]
  %113 = and i64 %.019.i72, %.020.i71
  store i64 %113, ptr %4, align 8
  %114 = xor i64 %3, -1
  %115 = and i64 %114, %1
  %116 = xor i64 %1, -1
  %117 = and i64 %116, %3
  br label %118

118:                                              ; preds = %132, %minAND.exit74
  %.030.i75 = phi i64 [ -9223372036854775808, %minAND.exit74 ], [ %133, %132 ]
  %119 = and i64 %115, %.030.i75
  %.not26.i76 = icmp eq i64 %119, 0
  br i1 %.not26.i76, label %125, label %120

120:                                              ; preds = %118
  %121 = xor i64 %.030.i75, -1
  %122 = add i64 %.030.i75, -1
  %123 = or i64 %122, %121
  %124 = or i64 %123, %1
  %.not29.i77 = icmp ult i64 %124, %0
  br i1 %.not29.i77, label %132, label %maxAND.exit82

125:                                              ; preds = %118
  %126 = and i64 %117, %.030.i75
  %.not27.i81 = icmp eq i64 %126, 0
  br i1 %.not27.i81, label %132, label %127

127:                                              ; preds = %125
  %128 = xor i64 %.030.i75, -1
  %129 = add i64 %.030.i75, -1
  %130 = or i64 %129, %128
  %131 = or i64 %130, %3
  br label %maxAND.exit82

132:                                              ; preds = %125, %120
  %133 = lshr i64 %.030.i75, 1
  %.not.i80 = icmp ult i64 %.030.i75, 2
  br i1 %.not.i80, label %maxAND.exit82, label %118

maxAND.exit82:                                    ; preds = %120, %132, %127
  %.023.i78 = phi i64 [ %1, %127 ], [ %124, %120 ], [ %1, %132 ]
  %.022.i79 = phi i64 [ %131, %127 ], [ %3, %132 ], [ %3, %120 ]
  %134 = and i64 %.022.i79, %.023.i78
  br label %.sink.split

.sink.split:                                      ; preds = %maxAND.exit, %54, %55, %minAND.exit51, %maxAND.exit66, %maxAND.exit82
  %.sink = phi i64 [ %134, %maxAND.exit82 ], [ %99, %maxAND.exit66 ], [ %67, %minAND.exit51 ], [ %3, %55 ], [ %1, %54 ], [ %53, %maxAND.exit ]
  %135 = getelementptr inbounds i8, ptr %4, i64 8
  store i64 %.sink, ptr %135, align 8
  br label %136

136:                                              ; preds = %.sink.split, %5
  ret void
}